target datalayout = "e-m:e-p270:32:32-p271:32:32-p272:64:64-i64:64-i128:128-f80:128-n8:16:32:64-S128"
target triple = "x86_64-pc-linux-gnu"

; Function Attrs: nounwind uwtable
define dso_local void @__archive_ensure_cloexec_flag(i32 noundef %0) #0 {
  %2 = alloca i32, align 4
  %3 = alloca i32, align 4
  store i32 %0, ptr %2, align 4, !tbaa !23
  call void @llvm.lifetime.start.p0(i64 4, ptr %3) #9
  %4 = load i32, ptr %2, align 4, !tbaa !23
  %5 = icmp sge i32 %4, 0
  br i1 %5, label %6, label %21

6:                                                ; preds = %1
  %7 = load i32, ptr %2, align 4, !tbaa !23
  %8 = call i32 (i32, i32, ...) @fcntl(i32 noundef %7, i32 noundef 1)
  store i32 %8, ptr %3, align 4, !tbaa !23
  %9 = load i32, ptr %3, align 4, !tbaa !23
  %10 = icmp ne i32 %9, -1
  br i1 %10, label %11, label %20

11:                                               ; preds = %6
  %12 = load i32, ptr %3, align 4, !tbaa !23
  %13 = and i32 %12, 1
  %14 = icmp eq i32 %13, 0
  br i1 %14, label %15, label %20

15:                                               ; preds = %11
  %16 = load i32, ptr %2, align 4, !tbaa !23
  %17 = load i32, ptr %3, align 4, !tbaa !23
  %18 = or i32 %17, 1
  %19 = call i32 (i32, i32, ...) @fcntl(i32 noundef %16, i32 noundef 2, i32 noundef %18)
  br label %20

20:                                               ; preds = %15, %11, %6
  br label %21

21:                                               ; preds = %20, %1
  call void @llvm.lifetime.end.p0(i64 4, ptr %3) #9
  ret void
}

; Function Attrs: nounwind uwtable
define dso_local i32 @__archive_mkstemp(ptr noundef %0) #0 {
  %2 = alloca ptr, align 8
  %3 = alloca i32, align 4
  store ptr %0, ptr %2, align 8, !tbaa !24
  call void @llvm.lifetime.start.p0(i64 4, ptr %3) #9
  store i32 -1, ptr %3, align 4, !tbaa !23
  %4 = load ptr, ptr %2, align 8, !tbaa !24
  %5 = call i32 @mkstemp(ptr noundef %4)
  store i32 %5, ptr %3, align 4, !tbaa !23
  %6 = load i32, ptr %3, align 4, !tbaa !23
  %7 = icmp sge i32 %6, 0
  br i1 %7, label %8, label %10

8:                                                ; preds = %1
  %9 = load i32, ptr %3, align 4, !tbaa !23
  call void @__archive_ensure_cloexec_flag(i32 noundef %9)
  br label %10

10:                                               ; preds = %8, %1
  %11 = load i32, ptr %3, align 4, !tbaa !23
  call void @llvm.lifetime.end.p0(i64 4, ptr %3) #9
  ret i32 %11
}