; Function Attrs: nounwind uwtable
define dso_local i32 @__archive_mkstemp(ptr noundef %0) local_unnamed_addr #0 {
  %2 = tail call i32 @mkstemp(ptr noundef %0) #18
  %3 = icmp sgt i32 %2, -1
  br i1 %3, label %4, label %__archive_ensure_cloexec_flag.exit

4:                                                ; preds = %1
  %5 = tail call i32 (i32, i32, ...) @fcntl(i32 noundef %2, i32 noundef 1) #18
  %6 = and i32 %5, 1
  %7 = icmp eq i32 %6, 0
  br i1 %7, label %8, label %__archive_ensure_cloexec_flag.exit

8:                                                ; preds = %4
  %9 = or disjoint i32 %5, 1
  %10 = tail call i32 (i32, i32, ...) @fcntl(i32 noundef %2, i32 noundef 2, i32 noundef %9) #18
  br label %__archive_ensure_cloexec_flag.exit

__archive_ensure_cloexec_flag.exit:               ; preds = %8, %4, %1
  ret i32 %2
}